target datalayout = "e-m:e-p270:32:32-p271:32:32-p272:64:64-i64:64-i128:128-f80:128-n8:16:32:64-S128"
target triple = "x86_64-pc-linux-gnu"

; Function Attrs: norecurse uwtable
define internal void @_ZNK5faiss15IndexHNSW2Level6searchElPKflPfPlPKNS_16SearchParametersE.omp_outlined.omp.reduction.reduction_func(ptr noundef %0, ptr noundef %1) #16 {
  %3 = alloca ptr, align 8
  %4 = alloca ptr, align 8
  store ptr %0, ptr %3, align 8, !tbaa !211
  store ptr %1, ptr %4, align 8, !tbaa !211
  %5 = load ptr, ptr %3, align 8
  %6 = load ptr, ptr %4, align 8
  %7 = getelementptr inbounds [4 x ptr], ptr %6, i64 0, i64 0
  %8 = load ptr, ptr %7, align 8
  %9 = getelementptr inbounds [4 x ptr], ptr %5, i64 0, i64 0
  %10 = load ptr, ptr %9, align 8
  %11 = getelementptr inbounds [4 x ptr], ptr %6, i64 0, i64 1
  %12 = load ptr, ptr %11, align 8
  %13 = getelementptr inbounds [4 x ptr], ptr %5, i64 0, i64 1
  %14 = load ptr, ptr %13, align 8
  %15 = getelementptr inbounds [4 x ptr], ptr %6, i64 0, i64 2
  %16 = load ptr, ptr %15, align 8
  %17 = getelementptr inbounds [4 x ptr], ptr %5, i64 0, i64 2
  %18 = load ptr, ptr %17, align 8
  %19 = getelementptr inbounds [4 x ptr], ptr %6, i64 0, i64 3
  %20 = load ptr, ptr %19, align 8
  %21 = getelementptr inbounds [4 x ptr], ptr %5, i64 0, i64 3
  %22 = load ptr, ptr %21, align 8
  %23 = load i64, ptr %10, align 8, !tbaa !9
  %24 = load i64, ptr %8, align 8, !tbaa !9
  %25 = add i64 %23, %24
  store i64 %25, ptr %10, align 8, !tbaa !9
  %26 = load i64, ptr %14, align 8, !tbaa !9
  %27 = load i64, ptr %12, align 8, !tbaa !9
  %28 = add i64 %26, %27
  store i64 %28, ptr %14, align 8, !tbaa !9
  %29 = load i64, ptr %18, align 8, !tbaa !9
  %30 = load i64, ptr %16, align 8, !tbaa !9
  %31 = add i64 %29, %30
  store i64 %31, ptr %18, align 8, !tbaa !9
  %32 = load i64, ptr %22, align 8, !tbaa !9
  %33 = load i64, ptr %20, align 8, !tbaa !9
  %34 = add i64 %32, %33
  store i64 %34, ptr %22, align 8, !tbaa !9
  ret void
}